target datalayout = "e-m:e-p270:32:32-p271:32:32-p272:64:64-i64:64-i128:128-f80:128-n8:16:32:64-S128"
target triple = "x86_64-pc-linux-gnu"

%class.QColor = type <{ i32, %"union.QColor::CT", [2 x i8] }>
%"union.QColor::CT" = type { %struct.anon }
%struct.anon = type { i16, i16, i16, i16, i16 }
%class.ColorValue = type { %class.Value, %class.QColor }
%class.Value = type { ptr }

; Function Attrs: mustprogress uwtable
define noundef zeroext i1 @_ZNK10ColorValueeqERK5Value(ptr noundef nonnull align 8 dereferenceable(24) %0, ptr noundef nonnull align 8 dereferenceable(8) %1) unnamed_addr #1 align 2 {
  %3 = alloca i1, align 1
  %4 = alloca ptr, align 8
  %5 = alloca ptr, align 8
  %6 = alloca %class.QColor, align 4
  store ptr %0, ptr %4, align 8
  store ptr %1, ptr %5, align 8
  %7 = load ptr, ptr %4, align 8
  %8 = load ptr, ptr %5, align 8
  %9 = load ptr, ptr %8, align 8
  %10 = getelementptr inbounds ptr, ptr %9, i64 17
  %11 = load ptr, ptr %10, align 8
  %12 = call noundef zeroext i1 %11(ptr noundef nonnull align 8 dereferenceable(8) %8)
  br i1 %12, label %13, label %20

13:                                               ; preds = %2
  %14 = getelementptr inbounds %class.ColorValue, ptr %7, i32 0, i32 1
  %15 = load ptr, ptr %5, align 8
  %16 = load ptr, ptr %15, align 8
  %17 = getelementptr inbounds ptr, ptr %16, i64 9
  %18 = load ptr, ptr %17, align 8
  call void %18(ptr dead_on_unwind writable sret(%class.QColor) align 4 %6, ptr noundef nonnull align 8 dereferenceable(8) %15)
  %19 = call noundef zeroext i1 @_ZNK6QColoreqERKS_(ptr noundef nonnull align 4 dereferenceable(14) %14, ptr noundef nonnull align 4 dereferenceable(14) %6) #5
  store i1 %19, ptr %3, align 1
  br label %21

20:                                               ; preds = %2
  store i1 false, ptr %3, align 1
  br label %21

21:                                               ; preds = %20, %13
  %22 = load i1, ptr %3, align 1
  ret i1 %22
}