; Function Attrs: mustprogress uwtable
define noundef zeroext i1 @_ZNK10ColorValueeqERK5Value(ptr noundef nonnull align 8 dereferenceable(24) %0, ptr noundef nonnull align 8 dereferenceable(8) %1) unnamed_addr #1 align 2 {
  %3 = alloca %class.QColor, align 4
  %4 = load ptr, ptr %1, align 8
  %5 = getelementptr inbounds i8, ptr %4, i64 136
  %6 = load ptr, ptr %5, align 8
  %7 = tail call noundef zeroext i1 %6(ptr noundef nonnull align 8 dereferenceable(8) %1)
  br i1 %7, label %8, label %14

8:                                                ; preds = %2
  %9 = getelementptr inbounds i8, ptr %0, i64 8
  %10 = load ptr, ptr %1, align 8
  %11 = getelementptr inbounds i8, ptr %10, i64 72
  %12 = load ptr, ptr %11, align 8
  call void %12(ptr dead_on_unwind nonnull writable sret(%class.QColor) align 4 %3, ptr noundef nonnull align 8 dereferenceable(8) %1)
  %13 = call noundef zeroext i1 @_ZNK6QColoreqERKS_(ptr noundef nonnull align 4 dereferenceable(14) %9, ptr noundef nonnull align 4 dereferenceable(14) %3) #14
  br label %14

14:                                               ; preds = %2, %8
  %.0 = phi i1 [ %13, %8 ], [ false, %2 ]
  ret i1 %.0
}